target datalayout = "e-m:e-p270:32:32-p271:32:32-p272:64:64-i64:64-i128:128-f80:128-n8:16:32:64-S128"
target triple = "x86_64-pc-linux-gnu"

%struct._zend_refcounted_h = type { i32, %union.anon }
%union.anon = type { i32 }
%struct._zend_string = type { %struct._zend_refcounted_h, i64, i64, [1 x i8] }
%struct._zval_struct = type { %union._zend_value, %union.anon.0, %union.anon.3 }
%union._zend_value = type { i64 }
%union.anon.0 = type { i32 }
%union.anon.3 = type { i32 }
%struct._zend_execute_data = type { ptr, ptr, ptr, ptr, %struct._zval_struct, ptr, ptr, ptr, ptr }

; Function Attrs: nounwind uwtable
define hidden void @zif_urlencode(ptr noundef %0, ptr noundef %1) #0 {
  %3 = alloca ptr, align 8
  %4 = alloca ptr, align 8
  %5 = alloca i1, align 1
  %6 = alloca ptr, align 8
  %7 = alloca ptr, align 8
  %8 = alloca i8, align 1
  %9 = alloca i32, align 4
  %10 = alloca i8, align 1
  %11 = alloca ptr, align 8
  %12 = alloca ptr, align 8
  %13 = alloca i8, align 1
  %14 = alloca i32, align 4
  %15 = alloca i32, align 4
  %16 = alloca ptr, align 8
  %17 = alloca ptr, align 8
  %18 = alloca ptr, align 8
  %19 = alloca i32, align 4
  %20 = alloca i32, align 4
  %21 = alloca i32, align 4
  %22 = alloca i32, align 4
  %23 = alloca i32, align 4
  %24 = alloca ptr, align 8
  %25 = alloca ptr, align 8
  %26 = alloca i32, align 4
  %27 = alloca ptr, align 8
  %28 = alloca i8, align 1
  %29 = alloca i8, align 1
  %30 = alloca i32, align 4
  %31 = alloca ptr, align 8
  %32 = alloca ptr, align 8
  store ptr %0, ptr %16, align 8
  store ptr %1, ptr %17, align 8
  br label %33

33:                                               ; preds = %2
  store i32 0, ptr %19, align 4
  store i32 1, ptr %20, align 4
  store i32 1, ptr %21, align 4
  %34 = load ptr, ptr %16, align 8
  %35 = getelementptr inbounds %struct._zend_execute_data, ptr %34, i32 0, i32 4
  %36 = getelementptr inbounds %struct._zval_struct, ptr %35, i32 0, i32 2
  %37 = load i32, ptr %36, align 4
  store i32 %37, ptr %22, align 4
  store i32 0, ptr %23, align 4
  store ptr null, ptr %25, align 8
  store i32 0, ptr %26, align 4
  store ptr null, ptr %27, align 8
  store i8 0, ptr %28, align 1
  store i8 0, ptr %29, align 1
  store i32 0, ptr %30, align 4
  br label %38

38:                                               ; preds = %33
  %39 = load i32, ptr %22, align 4
  %40 = load i32, ptr %20, align 4
  %41 = icmp ult i32 %39, %40
  %42 = xor i1 %41, true
  %43 = xor i1 %42, true
  %44 = zext i1 %43 to i32
  %45 = sext i32 %44 to i64
  %46 = icmp ne i64 %45, 0
  br i1 %46, label %56, label %47

47:                                               ; preds = %38
  %48 = load i32, ptr %22, align 4
  %49 = load i32, ptr %21, align 4
  %50 = icmp ugt i32 %48, %49
  %51 = xor i1 %50, true
  %52 = xor i1 %51, true
  %53 = zext i1 %52 to i32
  %54 = sext i32 %53 to i64
  %55 = icmp ne i64 %54, 0
  br i1 %55, label %56, label %59

56:                                               ; preds = %47, %38
  %57 = load i32, ptr %20, align 4
  %58 = load i32, ptr %21, align 4
  call void @zend_wrong_parameters_count_error(i32 noundef %57, i32 noundef %58)
  store i32 1, ptr %30, align 4
  br label %163

59:                                               ; preds = %47
  %60 = load ptr, ptr %16, align 8
  %61 = getelementptr inbounds %struct._zval_struct, ptr %60, i64 4
  store ptr %61, ptr %24, align 8
  %62 = load i32, ptr %23, align 4
  %63 = add i32 %62, 1
  store i32 %63, ptr %23, align 4
  %64 = load i32, ptr %23, align 4
  %65 = load i32, ptr %20, align 4
  %66 = icmp ule i32 %64, %65
  br i1 %66, label %72, label %67

67:                                               ; preds = %59
  %68 = load i8, ptr %29, align 1
  %69 = trunc i8 %68 to i1
  %70 = zext i1 %69 to i32
  %71 = icmp eq i32 %70, 1
  br label %72

72:                                               ; preds = %67, %59
  %73 = phi i1 [ true, %59 ], [ %71, %67 ]
  call void @llvm.assume(i1 %73)
  %74 = load i32, ptr %23, align 4
  %75 = load i32, ptr %20, align 4
  %76 = icmp ugt i32 %74, %75
  br i1 %76, label %82, label %77

77:                                               ; preds = %72
  %78 = load i8, ptr %29, align 1
  %79 = trunc i8 %78 to i1
  %80 = zext i1 %79 to i32
  %81 = icmp eq i32 %80, 0
  br label %82

82:                                               ; preds = %77, %72
  %83 = phi i1 [ true, %72 ], [ %81, %77 ]
  call void @llvm.assume(i1 %83)
  %84 = load i8, ptr %29, align 1
  %85 = trunc i8 %84 to i1
  br i1 %85, label %86, label %97

86:                                               ; preds = %82
  %87 = load i32, ptr %23, align 4
  %88 = load i32, ptr %22, align 4
  %89 = icmp ugt i32 %87, %88
  %90 = xor i1 %89, true
  %91 = xor i1 %90, true
  %92 = zext i1 %91 to i32
  %93 = sext i32 %92 to i64
  %94 = icmp ne i64 %93, 0
  br i1 %94, label %95, label %96

95:                                               ; preds = %86
  br label %163

96:                                               ; preds = %86
  br label %97

97:                                               ; preds = %96, %82
  %98 = load ptr, ptr %24, align 8
  %99 = getelementptr inbounds %struct._zval_struct, ptr %98, i32 1
  store ptr %99, ptr %24, align 8
  %100 = load ptr, ptr %24, align 8
  store ptr %100, ptr %25, align 8
  %101 = load ptr, ptr %25, align 8
  %102 = load i32, ptr %23, align 4
  store ptr %101, ptr %11, align 8
  store ptr %18, ptr %12, align 8
  store i8 0, ptr %13, align 1
  store i32 %102, ptr %14, align 4
  %103 = load ptr, ptr %11, align 8
  %104 = load ptr, ptr %12, align 8
  %105 = load i8, ptr %13, align 1
  %106 = trunc i8 %105 to i1
  %107 = load i32, ptr %14, align 4
  store ptr %103, ptr %6, align 8
  store ptr %104, ptr %7, align 8
  %108 = zext i1 %106 to i8
  store i8 %108, ptr %8, align 1
  store i32 %107, ptr %9, align 4
  store i8 0, ptr %10, align 1
  %109 = load ptr, ptr %6, align 8
  store ptr %109, ptr %3, align 8
  %110 = load ptr, ptr %3, align 8
  %111 = getelementptr inbounds %struct._zval_struct, ptr %110, i32 0, i32 1
  %112 = load i8, ptr %111, align 8
  %113 = zext i8 %112 to i32
  %114 = icmp eq i32 %113, 6
  br i1 %114, label %115, label %119

115:                                              ; preds = %97
  %116 = load ptr, ptr %6, align 8
  %117 = load ptr, ptr %116, align 8
  %118 = load ptr, ptr %7, align 8
  store ptr %117, ptr %118, align 8
  br label %144

119:                                              ; preds = %97
  %120 = load i8, ptr %8, align 1
  %121 = trunc i8 %120 to i1
  br i1 %121, label %122, label %131

122:                                              ; preds = %119
  %123 = load ptr, ptr %6, align 8
  store ptr %123, ptr %4, align 8
  %124 = load ptr, ptr %4, align 8
  %125 = getelementptr inbounds %struct._zval_struct, ptr %124, i32 0, i32 1
  %126 = load i8, ptr %125, align 8
  %127 = zext i8 %126 to i32
  %128 = icmp eq i32 %127, 1
  br i1 %128, label %129, label %131

129:                                              ; preds = %122
  %130 = load ptr, ptr %7, align 8
  store ptr null, ptr %130, align 8
  br label %144

131:                                              ; preds = %122, %119
  %132 = load i8, ptr %10, align 1
  %133 = trunc i8 %132 to i1
  br i1 %133, label %134, label %139

134:                                              ; preds = %131
  %135 = load ptr, ptr %6, align 8
  %136 = load ptr, ptr %7, align 8
  %137 = load i32, ptr %9, align 4
  %138 = call zeroext i1 @zend_flf_parse_arg_str_slow(ptr noundef %135, ptr noundef %136, i32 noundef %137) #13
  store i1 %138, ptr %5, align 1
  br label %145

139:                                              ; preds = %131
  %140 = load ptr, ptr %6, align 8
  %141 = load ptr, ptr %7, align 8
  %142 = load i32, ptr %9, align 4
  %143 = call zeroext i1 @zend_parse_arg_str_slow(ptr noundef %140, ptr noundef %141, i32 noundef %142) #13
  store i1 %143, ptr %5, align 1
  br label %145

144:                                              ; preds = %129, %115
  store i1 true, ptr %5, align 1
  br label %145

145:                                              ; preds = %144, %139, %134
  %146 = load i1, ptr %5, align 1
  %147 = xor i1 %146, true
  %148 = xor i1 %147, true
  %149 = xor i1 %148, true
  %150 = zext i1 %149 to i32
  %151 = sext i32 %150 to i64
  %152 = icmp ne i64 %151, 0
  br i1 %152, label %153, label %154

153:                                              ; preds = %145
  store i32 4, ptr %26, align 4
  store i32 9, ptr %30, align 4
  br label %163

154:                                              ; preds = %145
  %155 = load i32, ptr %23, align 4
  %156 = load i32, ptr %21, align 4
  %157 = icmp eq i32 %155, %156
  br i1 %157, label %161, label %158

158:                                              ; preds = %154
  %159 = load i32, ptr %21, align 4
  %160 = icmp eq i32 %159, -1
  br label %161

161:                                              ; preds = %158, %154
  %162 = phi i1 [ true, %154 ], [ %160, %158 ]
  call void @llvm.assume(i1 %162)
  br label %163

163:                                              ; preds = %161, %153, %95, %56
  %164 = load i32, ptr %30, align 4
  %165 = icmp ne i32 %164, 0
  %166 = xor i1 %165, true
  %167 = xor i1 %166, true
  %168 = zext i1 %167 to i32
  %169 = sext i32 %168 to i64
  %170 = icmp ne i64 %169, 0
  br i1 %170, label %171, label %177

171:                                              ; preds = %163
  %172 = load i32, ptr %30, align 4
  %173 = load i32, ptr %23, align 4
  %174 = load ptr, ptr %27, align 8
  %175 = load i32, ptr %26, align 4
  %176 = load ptr, ptr %25, align 8
  call void @zend_wrong_parameter_error(i32 noundef %172, i32 noundef %173, ptr noundef %174, i32 noundef %175, ptr noundef %176)
  br label %204

177:                                              ; preds = %163
  br label %178

178:                                              ; preds = %177
  br label %179

179:                                              ; preds = %178
  br label %180

180:                                              ; preds = %179
  %181 = load ptr, ptr %17, align 8
  store ptr %181, ptr %31, align 8
  %182 = load ptr, ptr %18, align 8
  %183 = getelementptr inbounds %struct._zend_string, ptr %182, i32 0, i32 3
  %184 = getelementptr inbounds [1 x i8], ptr %183, i64 0, i64 0
  %185 = load ptr, ptr %18, align 8
  %186 = getelementptr inbounds %struct._zend_string, ptr %185, i32 0, i32 2
  %187 = load i64, ptr %186, align 8
  %188 = call ptr @php_url_encode(ptr noundef %184, i64 noundef %187)
  store ptr %188, ptr %32, align 8
  %189 = load ptr, ptr %32, align 8
  %190 = load ptr, ptr %31, align 8
  %191 = getelementptr inbounds %struct._zval_struct, ptr %190, i32 0, i32 0
  store ptr %189, ptr %191, align 8
  %192 = load ptr, ptr %32, align 8
  %193 = getelementptr inbounds %struct._zend_string, ptr %192, i32 0, i32 0
  %194 = getelementptr inbounds %struct._zend_refcounted_h, ptr %193, i32 0, i32 1
  %195 = load i32, ptr %194, align 4
  store i32 %195, ptr %15, align 4
  %196 = load i32, ptr %15, align 4
  %197 = and i32 %196, 1008
  %198 = and i32 %197, 64
  %199 = icmp ne i32 %198, 0
  %200 = select i1 %199, i32 6, i32 262
  %201 = load ptr, ptr %31, align 8
  %202 = getelementptr inbounds %struct._zval_struct, ptr %201, i32 0, i32 1
  store i32 %200, ptr %202, align 8
  br label %203

203:                                              ; preds = %180
  br label %204

204:                                              ; preds = %203, %171
  ret void
}